; Function Attrs: nounwind uwtable
define dso_local void @sdsfree(ptr noundef %s) local_unnamed_addr #0 {
entry:
  %cmp = icmp eq ptr %s, null
  br i1 %cmp, label %return, label %if.end

if.end:                                           ; preds = %entry
  %arrayidx = getelementptr inbounds i8, ptr %s, i64 -1
  %0 = load i8, ptr %arrayidx, align 1
  %1 = and i8 %0, 7
  %2 = icmp ult i8 %1, 5
  br i1 %2, label %switch.lookup, label %sdsHdrSize.exit

switch.lookup:                                    ; preds = %if.end
  %3 = zext nneg i8 %1 to i64
  %switch.gep = getelementptr inbounds [5 x i64], ptr @switch.table.sdstemplate.8, i64 0, i64 %3
  %switch.load = load i64, ptr %switch.gep, align 8
  br label %sdsHdrSize.exit

sdsHdrSize.exit:                                  ; preds = %if.end, %switch.lookup
  %retval.0.i.neg = phi i64 [ %switch.load, %switch.lookup ], [ 0, %if.end ]
  %add.ptr = getelementptr inbounds i8, ptr %s, i64 %retval.0.i.neg
  tail call void @zfree(ptr noundef nonnull %add.ptr) #25
  br label %return

return:                                           ; preds = %entry, %sdsHdrSize.exit
  ret void
}